target datalayout = "e-m:e-p270:32:32-p271:32:32-p272:64:64-i64:64-i128:128-f80:128-n8:16:32:64-S128"
target triple = "x86_64-pc-linux-gnu"

%struct.eio_obj = type { i32, ptr, ptr, i8 }

; Function Attrs: nounwind uwtable
define dso_local void @eio_obj_destroy(ptr noundef %0) #0 {
  %2 = alloca ptr, align 8
  %3 = alloca ptr, align 8
  store ptr %0, ptr %2, align 8
  call void @llvm.lifetime.start.p0(i64 8, ptr %3) #7
  %4 = load ptr, ptr %2, align 8
  store ptr %4, ptr %3, align 8
  %5 = load ptr, ptr %3, align 8
  %6 = icmp ne ptr %5, null
  br i1 %6, label %7, label %10

7:                                                ; preds = %1
  %8 = load ptr, ptr %3, align 8
  %9 = getelementptr inbounds nuw %struct.eio_obj, ptr %8, i32 0, i32 2
  call void @slurm_xfree(ptr noundef %9)
  call void @slurm_xfree(ptr noundef %3)
  br label %10

10:                                               ; preds = %7, %1
  call void @llvm.lifetime.end.p0(i64 8, ptr %3) #7
  ret void
}