; Function Attrs: nounwind uwtable
define dso_local void @eio_obj_destroy(ptr noundef %0) #0 {
  %2 = alloca ptr, align 8
  call void @llvm.lifetime.start.p0(i64 8, ptr nonnull %2) #10
  store ptr %0, ptr %2, align 8
  %.not = icmp eq ptr %0, null
  br i1 %.not, label %5, label %3

3:                                                ; preds = %1
  %4 = getelementptr inbounds nuw i8, ptr %0, i64 16
  tail call void @slurm_xfree(ptr noundef nonnull %4) #10
  call void @slurm_xfree(ptr noundef nonnull %2) #10
  br label %5

5:                                                ; preds = %3, %1
  call void @llvm.lifetime.end.p0(i64 8, ptr nonnull %2) #10
  ret void
}